target datalayout = "e-m:e-p270:32:32-p271:32:32-p272:64:64-i64:64-i128:128-f80:128-n8:16:32:64-S128"
target triple = "x86_64-pc-linux-gnu"

%struct.Bus_Man_t_ = type { ptr, ptr, ptr, ptr, ptr, ptr, ptr, ptr, ptr, ptr, ptr, ptr }
%struct.Vec_Ptr_t_ = type { i32, i32, ptr }
%struct.Abc_Ntk_t_ = type { i32, i32, ptr, ptr, ptr, ptr, ptr, ptr, ptr, ptr, ptr, ptr, ptr, [11 x i32], i32, i32, i32, i32, ptr, i32, ptr, ptr, i32, i32, i32, double, i32, %struct.Vec_Int_t_, ptr, ptr, ptr, ptr, ptr, float, i32, ptr, ptr, ptr, ptr, ptr, ptr, ptr, ptr, ptr, ptr, ptr, ptr, ptr, ptr, ptr, ptr, ptr, ptr, ptr, ptr, ptr, ptr }
%struct.Vec_Int_t_ = type { i32, i32, ptr }
%struct.Vec_Flt_t_ = type { i32, i32, ptr }
%struct.Abc_Obj_t_ = type { ptr, ptr, i32, i32, %struct.Vec_Int_t_, %struct.Vec_Int_t_, %union.anon, %union.anon.0 }
%union.anon = type { ptr }
%union.anon.0 = type { ptr }

@.str.2 = private unnamed_addr constant [42 x i8] c"%3d : time = %7.2f ps   load = %7.2f ff  \00", align 1
@.str.4 = private unnamed_addr constant [2 x i8] c"*\00", align 1
@.str.5 = private unnamed_addr constant [2 x i8] c" \00", align 1
@.str.6 = private unnamed_addr constant [2 x i8] c"\0A\00", align 1
@.str.7 = private unnamed_addr constant [22 x i8] c"Fanout profile (%d):\0A\00", align 1
@.str.8 = private unnamed_addr constant [3 x i8] c"%s\00", align 1

; Function Attrs: inlinehint nounwind uwtable
define internal i32 @Vec_IntEntry(ptr noundef %0, i32 noundef %1) #4 {
  %3 = alloca ptr, align 8
  %4 = alloca i32, align 4
  store ptr %0, ptr %3, align 8, !tbaa !121
  store i32 %1, ptr %4, align 4, !tbaa !58
  %5 = load ptr, ptr %3, align 8, !tbaa !121
  %6 = getelementptr inbounds nuw %struct.Vec_Int_t_, ptr %5, i32 0, i32 2
  %7 = load ptr, ptr %6, align 8, !tbaa !141
  %8 = load i32, ptr %4, align 4, !tbaa !58
  %9 = sext i32 %8 to i64
  %10 = getelementptr inbounds i32, ptr %7, i64 %9
  %11 = load i32, ptr %10, align 4, !tbaa !58
  ret i32 %11
}

; Function Attrs: inlinehint nounwind uwtable
define internal float @Vec_FltEntry(ptr noundef %0, i32 noundef %1) #4 {
  %3 = alloca ptr, align 8
  %4 = alloca i32, align 4
  store ptr %0, ptr %3, align 8, !tbaa !70
  store i32 %1, ptr %4, align 4, !tbaa !58
  %5 = load ptr, ptr %3, align 8, !tbaa !70
  %6 = getelementptr inbounds nuw %struct.Vec_Flt_t_, ptr %5, i32 0, i32 2
  %7 = load ptr, ptr %6, align 8, !tbaa !73
  %8 = load i32, ptr %4, align 4, !tbaa !58
  %9 = sext i32 %8 to i64
  %10 = getelementptr inbounds float, ptr %7, i64 %9
  %11 = load float, ptr %10, align 4, !tbaa !74
  ret float %11
}

; Function Attrs: inlinehint nounwind uwtable
define internal i32 @Abc_ObjId(ptr noundef %0) #4 {
  %2 = alloca ptr, align 8
  store ptr %0, ptr %2, align 8, !tbaa !60
  %3 = load ptr, ptr %2, align 8, !tbaa !60
  %4 = getelementptr inbounds nuw %struct.Abc_Obj_t_, ptr %3, i32 0, i32 2
  %5 = load i32, ptr %4, align 8, !tbaa !101
  ret i32 %5
}

; Function Attrs: inlinehint nounwind uwtable
define internal ptr @Bus_SclObjMan(ptr noundef %0) #4 {
  %2 = alloca ptr, align 8
  store ptr %0, ptr %2, align 8, !tbaa !60
  %3 = load ptr, ptr %2, align 8, !tbaa !60
  %4 = getelementptr inbounds nuw %struct.Abc_Obj_t_, ptr %3, i32 0, i32 0
  %5 = load ptr, ptr %4, align 8, !tbaa !86
  %6 = getelementptr inbounds nuw %struct.Abc_Ntk_t_, ptr %5, i32 0, i32 44
  %7 = load ptr, ptr %6, align 8, !tbaa !56
  ret ptr %7
}

; Function Attrs: inlinehint nounwind uwtable
define internal i32 @Abc_ObjFaninPhase(ptr noundef %0, i32 noundef %1) #4 {
  %3 = alloca ptr, align 8
  %4 = alloca i32, align 4
  store ptr %0, ptr %3, align 8, !tbaa !60
  store i32 %1, ptr %4, align 4, !tbaa !58
  %5 = load ptr, ptr %3, align 8, !tbaa !60
  %6 = getelementptr inbounds nuw %struct.Abc_Obj_t_, ptr %5, i32 0, i32 0
  %7 = load ptr, ptr %6, align 8, !tbaa !86
  %8 = getelementptr inbounds nuw %struct.Abc_Ntk_t_, ptr %7, i32 0, i32 47
  %9 = load ptr, ptr %8, align 8, !tbaa !102
  %10 = load ptr, ptr %3, align 8, !tbaa !60
  %11 = call i32 @Abc_ObjId(ptr noundef %10)
  %12 = call i32 @Vec_IntEntry(ptr noundef %9, i32 noundef %11)
  %13 = load i32, ptr %4, align 4, !tbaa !58
  %14 = ashr i32 %12, %13
  %15 = and i32 %14, 1
  ret i32 %15
}

; Function Attrs: inlinehint nounwind uwtable
define internal i32 @Abc_ObjFanoutNum(ptr noundef %0) #4 {
  %2 = alloca ptr, align 8
  store ptr %0, ptr %2, align 8, !tbaa !60
  %3 = load ptr, ptr %2, align 8, !tbaa !60
  %4 = getelementptr inbounds nuw %struct.Abc_Obj_t_, ptr %3, i32 0, i32 5
  %5 = getelementptr inbounds nuw %struct.Vec_Int_t_, ptr %4, i32 0, i32 1
  %6 = load i32, ptr %5, align 4, !tbaa !84
  ret i32 %6
}

; Function Attrs: inlinehint nounwind uwtable
define internal float @Bus_SclObjCin(ptr noundef %0) #4 {
  %2 = alloca ptr, align 8
  store ptr %0, ptr %2, align 8, !tbaa !60
  %3 = load ptr, ptr %2, align 8, !tbaa !60
  %4 = call ptr @Bus_SclObjMan(ptr noundef %3)
  %5 = getelementptr inbounds nuw %struct.Bus_Man_t_, ptr %4, i32 0, i32 7
  %6 = load ptr, ptr %5, align 8, !tbaa !52
  %7 = load ptr, ptr %2, align 8, !tbaa !60
  %8 = call i32 @Abc_ObjId(ptr noundef %7)
  %9 = call float @Vec_FltEntry(ptr noundef %6, i32 noundef %8)
  ret float %9
}

; Function Attrs: inlinehint nounwind uwtable
define internal float @Bus_SclObjETime(ptr noundef %0) #4 {
  %2 = alloca ptr, align 8
  store ptr %0, ptr %2, align 8, !tbaa !60
  %3 = load ptr, ptr %2, align 8, !tbaa !60
  %4 = call ptr @Bus_SclObjMan(ptr noundef %3)
  %5 = getelementptr inbounds nuw %struct.Bus_Man_t_, ptr %4, i32 0, i32 8
  %6 = load ptr, ptr %5, align 8, !tbaa !53
  %7 = load ptr, ptr %2, align 8, !tbaa !60
  %8 = call i32 @Abc_ObjId(ptr noundef %7)
  %9 = call float @Vec_FltEntry(ptr noundef %6, i32 noundef %8)
  ret float %9
}

; Function Attrs: inlinehint nounwind uwtable
define internal ptr @Vec_PtrEntry(ptr noundef %0, i32 noundef %1) #4 {
  %3 = alloca ptr, align 8
  %4 = alloca i32, align 4
  store ptr %0, ptr %3, align 8, !tbaa !66
  store i32 %1, ptr %4, align 4, !tbaa !58
  %5 = load ptr, ptr %3, align 8, !tbaa !66
  %6 = getelementptr inbounds nuw %struct.Vec_Ptr_t_, ptr %5, i32 0, i32 2
  %7 = load ptr, ptr %6, align 8, !tbaa !69
  %8 = load i32, ptr %4, align 4, !tbaa !58
  %9 = sext i32 %8 to i64
  %10 = getelementptr inbounds ptr, ptr %7, i64 %9
  %11 = load ptr, ptr %10, align 8, !tbaa !88
  ret ptr %11
}

; Function Attrs: inlinehint nounwind uwtable
define internal i32 @Vec_PtrSize(ptr noundef %0) #4 {
  %2 = alloca ptr, align 8
  store ptr %0, ptr %2, align 8, !tbaa !66
  %3 = load ptr, ptr %2, align 8, !tbaa !66
  %4 = getelementptr inbounds nuw %struct.Vec_Ptr_t_, ptr %3, i32 0, i32 1
  %5 = load i32, ptr %4, align 4, !tbaa !67
  ret i32 %5
}

; Function Attrs: nounwind uwtable
define void @Abc_NtkPrintFanoutProfileVec(ptr noundef %0, ptr noundef %1) #0 {
  %3 = alloca ptr, align 8
  %4 = alloca ptr, align 8
  %5 = alloca ptr, align 8
  %6 = alloca i32, align 4
  store ptr %0, ptr %3, align 8, !tbaa !60
  store ptr %1, ptr %4, align 8, !tbaa !66
  call void @llvm.lifetime.start.p0(i64 8, ptr %5) #12
  call void @llvm.lifetime.start.p0(i64 4, ptr %6) #12
  %7 = load ptr, ptr %4, align 8, !tbaa !66
  %8 = call i32 @Vec_PtrSize(ptr noundef %7)
  %9 = call i32 (ptr, ...) @printf(ptr noundef @.str.7, i32 noundef %8)
  store i32 0, ptr %6, align 4, !tbaa !58
  br label %10

10:                                               ; preds = %58, %2
  %11 = load i32, ptr %6, align 4, !tbaa !58
  %12 = load ptr, ptr %4, align 8, !tbaa !66
  %13 = call i32 @Vec_PtrSize(ptr noundef %12)
  %14 = icmp slt i32 %11, %13
  br i1 %14, label %15, label %19

15:                                               ; preds = %10
  %16 = load ptr, ptr %4, align 8, !tbaa !66
  %17 = load i32, ptr %6, align 4, !tbaa !58
  %18 = call ptr @Vec_PtrEntry(ptr noundef %16, i32 noundef %17)
  store ptr %18, ptr %5, align 8, !tbaa !60
  br label %19

19:                                               ; preds = %15, %10
  %20 = phi i1 [ false, %10 ], [ true, %15 ]
  br i1 %20, label %21, label %61

21:                                               ; preds = %19
  %22 = load i32, ptr %6, align 4, !tbaa !58
  %23 = load ptr, ptr %5, align 8, !tbaa !60
  %24 = call float @Bus_SclObjETime(ptr noundef %23)
  %25 = fpext float %24 to double
  %26 = load ptr, ptr %5, align 8, !tbaa !60
  %27 = call float @Bus_SclObjCin(ptr noundef %26)
  %28 = fpext float %27 to double
  %29 = call i32 (ptr, ...) @printf(ptr noundef @.str.2, i32 noundef %22, double noundef %25, double noundef %28)
  %30 = load ptr, ptr %3, align 8, !tbaa !60
  %31 = getelementptr inbounds nuw %struct.Abc_Obj_t_, ptr %30, i32 0, i32 0
  %32 = load ptr, ptr %31, align 8, !tbaa !86
  %33 = getelementptr inbounds nuw %struct.Abc_Ntk_t_, ptr %32, i32 0, i32 47
  %34 = load ptr, ptr %33, align 8, !tbaa !102
  %35 = icmp ne ptr %34, null
  br i1 %35, label %36, label %56

36:                                               ; preds = %21
  %37 = load ptr, ptr %3, align 8, !tbaa !60
  %38 = icmp ne ptr %37, null
  br i1 %38, label %39, label %52

39:                                               ; preds = %36
  %40 = load ptr, ptr %3, align 8, !tbaa !60
  %41 = call i32 @Abc_ObjFanoutNum(ptr noundef %40)
  %42 = load ptr, ptr %4, align 8, !tbaa !66
  %43 = call i32 @Vec_PtrSize(ptr noundef %42)
  %44 = icmp eq i32 %41, %43
  br i1 %44, label %45, label %52

45:                                               ; preds = %39
  %46 = load ptr, ptr %5, align 8, !tbaa !60
  %47 = load ptr, ptr %5, align 8, !tbaa !60
  %48 = load ptr, ptr %3, align 8, !tbaa !60
  %49 = call i32 @Abc_NodeFindFanin(ptr noundef %47, ptr noundef %48)
  %50 = call i32 @Abc_ObjFaninPhase(ptr noundef %46, i32 noundef %49)
  %51 = icmp ne i32 %50, 0
  br label %52

52:                                               ; preds = %45, %39, %36
  %53 = phi i1 [ false, %39 ], [ false, %36 ], [ %51, %45 ]
  %54 = select i1 %53, ptr @.str.4, ptr @.str.5
  %55 = call i32 (ptr, ...) @printf(ptr noundef @.str.8, ptr noundef %54)
  br label %56

56:                                               ; preds = %52, %21
  %57 = call i32 (ptr, ...) @printf(ptr noundef @.str.6)
  br label %58

58:                                               ; preds = %56
  %59 = load i32, ptr %6, align 4, !tbaa !58
  %60 = add nsw i32 %59, 1
  store i32 %60, ptr %6, align 4, !tbaa !58
  br label %10, !llvm.loop !103

61:                                               ; preds = %19
  %62 = call i32 (ptr, ...) @printf(ptr noundef @.str.6)
  call void @llvm.lifetime.end.p0(i64 4, ptr %6) #12
  call void @llvm.lifetime.end.p0(i64 8, ptr %5) #12
  ret void
}