; Function Attrs: nounwind uwtable
define void @Abc_NtkPrintFanoutProfileVec(ptr noundef %0, ptr noundef readonly captures(none) %1) local_unnamed_addr #0 {
  %3 = getelementptr i8, ptr %1, i64 4
  %.val18 = load i32, ptr %3, align 4, !tbaa !42
  %4 = tail call i32 (ptr, ...) @printf(ptr noundef nonnull dereferenceable(1) @.str.7, i32 noundef %.val18)
  %.val1727 = load i32, ptr %3, align 4, !tbaa !42
  %5 = icmp sgt i32 %.val1727, 0
  br i1 %5, label %.lr.ph, label %.critedge

.lr.ph:                                           ; preds = %2
  %6 = getelementptr i8, ptr %1, i64 8
  %7 = getelementptr i8, ptr %0, i64 44
  br label %8

8:                                                ; preds = %.lr.ph, %44
  %indvars.iv = phi i64 [ 0, %.lr.ph ], [ %indvars.iv.next, %44 ]
  %.val19 = load ptr, ptr %6, align 8, !tbaa !43
  %9 = getelementptr inbounds nuw ptr, ptr %.val19, i64 %indvars.iv
  %10 = load ptr, ptr %9, align 8, !tbaa !44
  %.val23 = load ptr, ptr %10, align 8, !tbaa !48
  %11 = getelementptr i8, ptr %10, i64 16
  %.val24 = load i32, ptr %11, align 8, !tbaa !51
  %12 = getelementptr i8, ptr %.val23, i64 360
  %.val23.val = load ptr, ptr %12, align 8, !tbaa !74
  %13 = getelementptr i8, ptr %.val23.val, i64 64
  %.val23.val.val = load ptr, ptr %13, align 8, !tbaa !70
  %14 = getelementptr i8, ptr %.val23.val.val, i64 8
  %.val23.val.val.val = load ptr, ptr %14, align 8, !tbaa !68
  %15 = sext i32 %.val24 to i64
  %16 = getelementptr inbounds float, ptr %.val23.val.val.val, i64 %15
  %17 = load float, ptr %16, align 4, !tbaa !73
  %18 = fpext float %17 to double
  %19 = getelementptr i8, ptr %.val23.val, i64 56
  %.val21.val.val = load ptr, ptr %19, align 8, !tbaa !69
  %20 = getelementptr i8, ptr %.val21.val.val, i64 8
  %.val21.val.val.val = load ptr, ptr %20, align 8, !tbaa !68
  %21 = getelementptr inbounds float, ptr %.val21.val.val.val, i64 %15
  %22 = load float, ptr %21, align 4, !tbaa !73
  %23 = fpext float %22 to double
  %24 = trunc nuw nsw i64 %indvars.iv to i32
  %25 = tail call i32 (ptr, ...) @printf(ptr noundef nonnull dereferenceable(1) @.str.2, i32 noundef %24, double noundef %18, double noundef %23)
  %26 = load ptr, ptr %0, align 8, !tbaa !48
  %27 = getelementptr inbounds nuw i8, ptr %26, i64 384
  %28 = load ptr, ptr %27, align 8, !tbaa !96
  %.not = icmp eq ptr %28, null
  br i1 %.not, label %44, label %29

29:                                               ; preds = %8
  %.val20 = load i32, ptr %7, align 4, !tbaa !80
  %.val = load i32, ptr %3, align 4, !tbaa !42
  %30 = icmp eq i32 %.val20, %.val
  br i1 %30, label %31, label %41

31:                                               ; preds = %29
  %32 = tail call i32 @Abc_NodeFindFanin(ptr noundef nonnull %10, ptr noundef nonnull %0) #24
  %.val25 = load ptr, ptr %10, align 8, !tbaa !48
  %.val26 = load i32, ptr %11, align 8, !tbaa !51
  %33 = getelementptr i8, ptr %.val25, i64 384
  %.val25.val = load ptr, ptr %33, align 8, !tbaa !96
  %34 = getelementptr i8, ptr %.val25.val, i64 8
  %.val25.val.val = load ptr, ptr %34, align 8, !tbaa !53
  %35 = sext i32 %.val26 to i64
  %36 = getelementptr inbounds i32, ptr %.val25.val.val, i64 %35
  %37 = load i32, ptr %36, align 4, !tbaa !54
  %38 = shl nuw i32 1, %32
  %39 = and i32 %37, %38
  %.not15 = icmp eq i32 %39, 0
  %40 = select i1 %.not15, ptr @.str.5, ptr @.str.4
  br label %41

41:                                               ; preds = %31, %29
  %42 = phi ptr [ @.str.5, %29 ], [ %40, %31 ]
  %43 = tail call i32 (ptr, ...) @printf(ptr noundef nonnull dereferenceable(1) @.str.8, ptr noundef nonnull %42)
  br label %44

44:                                               ; preds = %41, %8
  %putchar16 = tail call i32 @putchar(i32 10)
  %indvars.iv.next = add nuw nsw i64 %indvars.iv, 1
  %.val17 = load i32, ptr %3, align 4, !tbaa !42
  %45 = sext i32 %.val17 to i64
  %46 = icmp slt i64 %indvars.iv.next, %45
  br i1 %46, label %8, label %.critedge, !llvm.loop !98

.critedge:                                        ; preds = %44, %2
  %putchar = tail call i32 @putchar(i32 10)
  ret void
}